target datalayout = "e-m:e-p270:32:32-p271:32:32-p272:64:64-i64:64-i128:128-f80:128-n8:16:32:64-S128"
target triple = "x86_64-pc-linux-gnu"

%struct.UCHARBUF = type { ptr, ptr, ptr, i32, i32, i32, ptr, ptr, i8, i8 }

; Function Attrs: mustprogress nounwind uwtable
define internal noundef signext i8 @_ZL19ucbuf_isCharNewLineDs(i16 noundef zeroext %0) #5 {
  %2 = alloca i8, align 1
  %3 = alloca i16, align 2
  store i16 %0, ptr %3, align 2, !tbaa !26
  %4 = load i16, ptr %3, align 2, !tbaa !26
  %5 = zext i16 %4 to i32
  switch i32 %5, label %7 [
    i32 10, label %6
    i32 13, label %6
    i32 12, label %6
    i32 133, label %6
    i32 8232, label %6
    i32 8233, label %6
  ]

6:                                                ; preds = %1, %1, %1, %1, %1, %1
  store i8 1, ptr %2, align 1
  br label %8

7:                                                ; preds = %1
  store i8 0, ptr %2, align 1
  br label %8

8:                                                ; preds = %7, %6
  %9 = load i8, ptr %2, align 1
  ret i8 %9
}

; Function Attrs: inlinehint mustprogress nounwind uwtable
define internal noundef signext i8 @_ZL9U_FAILURE10UErrorCode(i32 noundef %0) #4 {
  %2 = alloca i32, align 4
  store i32 %0, ptr %2, align 4, !tbaa !24
  %3 = load i32, ptr %2, align 4, !tbaa !24
  %4 = icmp sgt i32 %3, 0
  %5 = zext i1 %4 to i8
  ret i8 %5
}

; Function Attrs: mustprogress uwtable
define ptr @ucbuf_readline(ptr noundef %0, ptr noundef %1, ptr noundef %2) #0 {
  %4 = alloca ptr, align 8
  %5 = alloca ptr, align 8
  %6 = alloca ptr, align 8
  %7 = alloca ptr, align 8
  %8 = alloca ptr, align 8
  %9 = alloca ptr, align 8
  %10 = alloca i16, align 2
  %11 = alloca i32, align 4
  store ptr %0, ptr %5, align 8, !tbaa !28
  store ptr %1, ptr %6, align 8, !tbaa !13
  store ptr %2, ptr %7, align 8, !tbaa !15
  call void @llvm.lifetime.start.p0(i64 8, ptr %8) #10
  %12 = load ptr, ptr %5, align 8, !tbaa !28
  %13 = getelementptr inbounds nuw %struct.UCHARBUF, ptr %12, i32 0, i32 1
  %14 = load ptr, ptr %13, align 8, !tbaa !30
  store ptr %14, ptr %8, align 8, !tbaa !22
  call void @llvm.lifetime.start.p0(i64 8, ptr %9) #10
  store ptr null, ptr %9, align 8, !tbaa !22
  call void @llvm.lifetime.start.p0(i64 2, ptr %10) #10
  store i16 0, ptr %10, align 2, !tbaa !26
  %15 = load ptr, ptr %5, align 8, !tbaa !28
  %16 = getelementptr inbounds nuw %struct.UCHARBUF, ptr %15, i32 0, i32 9
  %17 = load i8, ptr %16, align 1, !tbaa !35
  %18 = icmp ne i8 %17, 0
  br i1 %18, label %19, label %118

19:                                               ; preds = %3
  br label %20

20:                                               ; preds = %117, %19
  %21 = load ptr, ptr %8, align 8, !tbaa !22
  %22 = getelementptr inbounds nuw i16, ptr %21, i32 1
  store ptr %22, ptr %8, align 8, !tbaa !22
  %23 = load i16, ptr %21, align 2, !tbaa !26
  store i16 %23, ptr %10, align 2, !tbaa !26
  %24 = load ptr, ptr %5, align 8, !tbaa !28
  %25 = getelementptr inbounds nuw %struct.UCHARBUF, ptr %24, i32 0, i32 4
  %26 = load i32, ptr %25, align 4, !tbaa !33
  %27 = icmp eq i32 %26, 0
  br i1 %27, label %28, label %29

28:                                               ; preds = %20
  store ptr null, ptr %4, align 8
  store i32 1, ptr %11, align 4
  br label %194

29:                                               ; preds = %20
  %30 = load ptr, ptr %8, align 8, !tbaa !22
  %31 = load ptr, ptr %5, align 8, !tbaa !28
  %32 = getelementptr inbounds nuw %struct.UCHARBUF, ptr %31, i32 0, i32 2
  %33 = load ptr, ptr %32, align 8, !tbaa !32
  %34 = icmp uge ptr %30, %33
  br i1 %34, label %35, label %45

35:                                               ; preds = %29
  %36 = load ptr, ptr %5, align 8, !tbaa !28
  %37 = getelementptr inbounds nuw %struct.UCHARBUF, ptr %36, i32 0, i32 1
  %38 = load ptr, ptr %37, align 8, !tbaa !30
  %39 = load ptr, ptr %5, align 8, !tbaa !28
  %40 = getelementptr inbounds nuw %struct.UCHARBUF, ptr %39, i32 0, i32 0
  %41 = load ptr, ptr %40, align 8, !tbaa !34
  %42 = icmp eq ptr %38, %41
  br i1 %42, label %43, label %45

43:                                               ; preds = %35
  %44 = load ptr, ptr %7, align 8, !tbaa !15
  store i32 11, ptr %44, align 4, !tbaa !24
  store ptr null, ptr %4, align 8
  store i32 1, ptr %11, align 4
  br label %194

45:                                               ; preds = %35, %29
  %46 = load ptr, ptr %5, align 8, !tbaa !28
  %47 = load ptr, ptr %7, align 8, !tbaa !15
  %48 = call noundef ptr @_ZL15ucbuf_fillucbufP8UCHARBUFP10UErrorCode(ptr noundef %46, ptr noundef %47)
  %49 = load ptr, ptr %7, align 8, !tbaa !15
  %50 = load i32, ptr %49, align 4, !tbaa !24
  %51 = call noundef signext i8 @_ZL9U_FAILURE10UErrorCode(i32 noundef %50)
  %52 = icmp ne i8 %51, 0
  br i1 %52, label %53, label %54

53:                                               ; preds = %45
  store ptr null, ptr %4, align 8
  store i32 1, ptr %11, align 4
  br label %194

54:                                               ; preds = %45
  br label %55

55:                                               ; preds = %54
  %56 = load i16, ptr %10, align 2, !tbaa !26
  %57 = zext i16 %56 to i32
  %58 = icmp eq i32 %57, 13
  br i1 %58, label %59, label %89

59:                                               ; preds = %55
  %60 = load ptr, ptr %8, align 8, !tbaa !22
  %61 = load ptr, ptr %5, align 8, !tbaa !28
  %62 = getelementptr inbounds nuw %struct.UCHARBUF, ptr %61, i32 0, i32 2
  %63 = load ptr, ptr %62, align 8, !tbaa !32
  %64 = icmp ule ptr %60, %63
  br i1 %64, label %65, label %89

65:                                               ; preds = %59
  %66 = load ptr, ptr %8, align 8, !tbaa !22
  %67 = load i16, ptr %66, align 2, !tbaa !26
  %68 = zext i16 %67 to i32
  %69 = icmp eq i32 %68, 10
  br i1 %69, label %70, label %89

70:                                               ; preds = %65
  %71 = load ptr, ptr %8, align 8, !tbaa !22
  %72 = getelementptr inbounds nuw i16, ptr %71, i32 1
  store ptr %72, ptr %8, align 8, !tbaa !22
  %73 = load ptr, ptr %5, align 8, !tbaa !28
  %74 = getelementptr inbounds nuw %struct.UCHARBUF, ptr %73, i32 0, i32 1
  %75 = load ptr, ptr %74, align 8, !tbaa !30
  %76 = ptrtoint ptr %71 to i64
  %77 = ptrtoint ptr %75 to i64
  %78 = sub i64 %76, %77
  %79 = sdiv exact i64 %78, 2
  %80 = trunc i64 %79 to i32
  %81 = load ptr, ptr %6, align 8, !tbaa !13
  store i32 %80, ptr %81, align 4, !tbaa !16
  %82 = load ptr, ptr %5, align 8, !tbaa !28
  %83 = getelementptr inbounds nuw %struct.UCHARBUF, ptr %82, i32 0, i32 1
  %84 = load ptr, ptr %83, align 8, !tbaa !30
  store ptr %84, ptr %9, align 8, !tbaa !22
  %85 = load ptr, ptr %8, align 8, !tbaa !22
  %86 = load ptr, ptr %5, align 8, !tbaa !28
  %87 = getelementptr inbounds nuw %struct.UCHARBUF, ptr %86, i32 0, i32 1
  store ptr %85, ptr %87, align 8, !tbaa !30
  %88 = load ptr, ptr %9, align 8, !tbaa !22
  store ptr %88, ptr %4, align 8
  store i32 1, ptr %11, align 4
  br label %194

89:                                               ; preds = %65, %59, %55
  %90 = load ptr, ptr %8, align 8, !tbaa !22
  %91 = load ptr, ptr %5, align 8, !tbaa !28
  %92 = getelementptr inbounds nuw %struct.UCHARBUF, ptr %91, i32 0, i32 2
  %93 = load ptr, ptr %92, align 8, !tbaa !32
  %94 = icmp uge ptr %90, %93
  br i1 %94, label %99, label %95

95:                                               ; preds = %89
  %96 = load i16, ptr %10, align 2, !tbaa !26
  %97 = call noundef signext i8 @_ZL19ucbuf_isCharNewLineDs(i16 noundef zeroext %96)
  %98 = icmp ne i8 %97, 0
  br i1 %98, label %99, label %117

99:                                               ; preds = %95, %89
  %100 = load ptr, ptr %8, align 8, !tbaa !22
  %101 = load ptr, ptr %5, align 8, !tbaa !28
  %102 = getelementptr inbounds nuw %struct.UCHARBUF, ptr %101, i32 0, i32 1
  %103 = load ptr, ptr %102, align 8, !tbaa !30
  %104 = ptrtoint ptr %100 to i64
  %105 = ptrtoint ptr %103 to i64
  %106 = sub i64 %104, %105
  %107 = sdiv exact i64 %106, 2
  %108 = trunc i64 %107 to i32
  %109 = load ptr, ptr %6, align 8, !tbaa !13
  store i32 %108, ptr %109, align 4, !tbaa !16
  %110 = load ptr, ptr %5, align 8, !tbaa !28
  %111 = getelementptr inbounds nuw %struct.UCHARBUF, ptr %110, i32 0, i32 1
  %112 = load ptr, ptr %111, align 8, !tbaa !30
  store ptr %112, ptr %9, align 8, !tbaa !22
  %113 = load ptr, ptr %8, align 8, !tbaa !22
  %114 = load ptr, ptr %5, align 8, !tbaa !28
  %115 = getelementptr inbounds nuw %struct.UCHARBUF, ptr %114, i32 0, i32 1
  store ptr %113, ptr %115, align 8, !tbaa !30
  %116 = load ptr, ptr %9, align 8, !tbaa !22
  store ptr %116, ptr %4, align 8
  store i32 1, ptr %11, align 4
  br label %194

117:                                              ; preds = %95
  br label %20, !llvm.loop !44

118:                                              ; preds = %3
  br label %119

119:                                              ; preds = %193, %118
  %120 = load ptr, ptr %8, align 8, !tbaa !22
  %121 = getelementptr inbounds nuw i16, ptr %120, i32 1
  store ptr %121, ptr %8, align 8, !tbaa !22
  %122 = load i16, ptr %120, align 2, !tbaa !26
  store i16 %122, ptr %10, align 2, !tbaa !26
  %123 = load ptr, ptr %5, align 8, !tbaa !28
  %124 = getelementptr inbounds nuw %struct.UCHARBUF, ptr %123, i32 0, i32 1
  %125 = load ptr, ptr %124, align 8, !tbaa !30
  %126 = load ptr, ptr %5, align 8, !tbaa !28
  %127 = getelementptr inbounds nuw %struct.UCHARBUF, ptr %126, i32 0, i32 2
  %128 = load ptr, ptr %127, align 8, !tbaa !32
  %129 = icmp eq ptr %125, %128
  br i1 %129, label %130, label %131

130:                                              ; preds = %119
  store ptr null, ptr %4, align 8
  store i32 1, ptr %11, align 4
  br label %194

131:                                              ; preds = %119
  %132 = load i16, ptr %10, align 2, !tbaa !26
  %133 = zext i16 %132 to i32
  %134 = icmp eq i32 %133, 13
  br i1 %134, label %135, label %165

135:                                              ; preds = %131
  %136 = load ptr, ptr %8, align 8, !tbaa !22
  %137 = load ptr, ptr %5, align 8, !tbaa !28
  %138 = getelementptr inbounds nuw %struct.UCHARBUF, ptr %137, i32 0, i32 2
  %139 = load ptr, ptr %138, align 8, !tbaa !32
  %140 = icmp ule ptr %136, %139
  br i1 %140, label %141, label %165

141:                                              ; preds = %135
  %142 = load ptr, ptr %8, align 8, !tbaa !22
  %143 = load i16, ptr %142, align 2, !tbaa !26
  %144 = zext i16 %143 to i32
  %145 = icmp eq i32 %144, 10
  br i1 %145, label %146, label %165

146:                                              ; preds = %141
  %147 = load ptr, ptr %8, align 8, !tbaa !22
  %148 = getelementptr inbounds nuw i16, ptr %147, i32 1
  store ptr %148, ptr %8, align 8, !tbaa !22
  %149 = load ptr, ptr %5, align 8, !tbaa !28
  %150 = getelementptr inbounds nuw %struct.UCHARBUF, ptr %149, i32 0, i32 1
  %151 = load ptr, ptr %150, align 8, !tbaa !30
  %152 = ptrtoint ptr %147 to i64
  %153 = ptrtoint ptr %151 to i64
  %154 = sub i64 %152, %153
  %155 = sdiv exact i64 %154, 2
  %156 = trunc i64 %155 to i32
  %157 = load ptr, ptr %6, align 8, !tbaa !13
  store i32 %156, ptr %157, align 4, !tbaa !16
  %158 = load ptr, ptr %5, align 8, !tbaa !28
  %159 = getelementptr inbounds nuw %struct.UCHARBUF, ptr %158, i32 0, i32 1
  %160 = load ptr, ptr %159, align 8, !tbaa !30
  store ptr %160, ptr %9, align 8, !tbaa !22
  %161 = load ptr, ptr %8, align 8, !tbaa !22
  %162 = load ptr, ptr %5, align 8, !tbaa !28
  %163 = getelementptr inbounds nuw %struct.UCHARBUF, ptr %162, i32 0, i32 1
  store ptr %161, ptr %163, align 8, !tbaa !30
  %164 = load ptr, ptr %9, align 8, !tbaa !22
  store ptr %164, ptr %4, align 8
  store i32 1, ptr %11, align 4
  br label %194

165:                                              ; preds = %141, %135, %131
  %166 = load ptr, ptr %8, align 8, !tbaa !22
  %167 = load ptr, ptr %5, align 8, !tbaa !28
  %168 = getelementptr inbounds nuw %struct.UCHARBUF, ptr %167, i32 0, i32 2
  %169 = load ptr, ptr %168, align 8, !tbaa !32
  %170 = icmp uge ptr %166, %169
  br i1 %170, label %175, label %171

171:                                              ; preds = %165
  %172 = load i16, ptr %10, align 2, !tbaa !26
  %173 = call noundef signext i8 @_ZL19ucbuf_isCharNewLineDs(i16 noundef zeroext %172)
  %174 = icmp ne i8 %173, 0
  br i1 %174, label %175, label %193

175:                                              ; preds = %171, %165
  %176 = load ptr, ptr %8, align 8, !tbaa !22
  %177 = load ptr, ptr %5, align 8, !tbaa !28
  %178 = getelementptr inbounds nuw %struct.UCHARBUF, ptr %177, i32 0, i32 1
  %179 = load ptr, ptr %178, align 8, !tbaa !30
  %180 = ptrtoint ptr %176 to i64
  %181 = ptrtoint ptr %179 to i64
  %182 = sub i64 %180, %181
  %183 = sdiv exact i64 %182, 2
  %184 = trunc i64 %183 to i32
  %185 = load ptr, ptr %6, align 8, !tbaa !13
  store i32 %184, ptr %185, align 4, !tbaa !16
  %186 = load ptr, ptr %5, align 8, !tbaa !28
  %187 = getelementptr inbounds nuw %struct.UCHARBUF, ptr %186, i32 0, i32 1
  %188 = load ptr, ptr %187, align 8, !tbaa !30
  store ptr %188, ptr %9, align 8, !tbaa !22
  %189 = load ptr, ptr %8, align 8, !tbaa !22
  %190 = load ptr, ptr %5, align 8, !tbaa !28
  %191 = getelementptr inbounds nuw %struct.UCHARBUF, ptr %190, i32 0, i32 1
  store ptr %189, ptr %191, align 8, !tbaa !30
  %192 = load ptr, ptr %9, align 8, !tbaa !22
  store ptr %192, ptr %4, align 8
  store i32 1, ptr %11, align 4
  br label %194

193:                                              ; preds = %171
  br label %119, !llvm.loop !46

194:                                              ; preds = %175, %146, %130, %99, %70, %53, %43, %28
  call void @llvm.lifetime.end.p0(i64 2, ptr %10) #10
  call void @llvm.lifetime.end.p0(i64 8, ptr %9) #10
  call void @llvm.lifetime.end.p0(i64 8, ptr %8) #10
  %195 = load ptr, ptr %4, align 8
  ret ptr %195
}