; Function Attrs: mustprogress uwtable
define ptr @ucbuf_readline(ptr noundef %0, ptr noundef writeonly captures(none) %1, ptr noundef %2) local_unnamed_addr #0 {
  %4 = getelementptr inbounds nuw i8, ptr %0, i64 8
  %5 = load ptr, ptr %4, align 8, !tbaa !16
  %6 = getelementptr inbounds nuw i8, ptr %0, i64 57
  %7 = load i8, ptr %6, align 1, !tbaa !24
  %.not = icmp eq i8 %7, 0
  br i1 %.not, label %_ZL19ucbuf_isCharNewLineDs.exit73.preheader, label %_ZL19ucbuf_isCharNewLineDs.exit.preheader

_ZL19ucbuf_isCharNewLineDs.exit.preheader:        ; preds = %3
  %8 = getelementptr inbounds nuw i8, ptr %0, i64 28
  %9 = getelementptr inbounds nuw i8, ptr %0, i64 16
  br label %_ZL19ucbuf_isCharNewLineDs.exit

_ZL19ucbuf_isCharNewLineDs.exit73.preheader:      ; preds = %3
  %10 = getelementptr inbounds nuw i8, ptr %0, i64 16
  %11 = load ptr, ptr %10, align 8, !tbaa !19
  %12 = icmp eq ptr %5, %11
  br i1 %12, label %.loopexit, label %_ZL19ucbuf_isCharNewLineDs.exit73

_ZL19ucbuf_isCharNewLineDs.exit:                  ; preds = %_ZL19ucbuf_isCharNewLineDs.exit.preheader, %42
  %.0 = phi ptr [ %13, %42 ], [ %5, %_ZL19ucbuf_isCharNewLineDs.exit.preheader ]
  %13 = getelementptr inbounds nuw i8, ptr %.0, i64 2
  %14 = load i16, ptr %.0, align 2, !tbaa !21
  %15 = load i32, ptr %8, align 4, !tbaa !20
  %16 = icmp eq i32 %15, 0
  br i1 %16, label %.loopexit, label %17

17:                                               ; preds = %_ZL19ucbuf_isCharNewLineDs.exit
  %18 = load ptr, ptr %9, align 8, !tbaa !19
  %.not67 = icmp ult ptr %13, %18
  br i1 %.not67, label %24, label %19

19:                                               ; preds = %17
  %20 = load ptr, ptr %4, align 8, !tbaa !16
  %21 = load ptr, ptr %0, align 8, !tbaa !23
  %22 = icmp eq ptr %20, %21
  br i1 %22, label %23, label %24

23:                                               ; preds = %19
  store i32 11, ptr %2, align 4, !tbaa !14
  br label %.loopexit

24:                                               ; preds = %19, %17
  %25 = tail call fastcc noundef ptr @_ZL15ucbuf_fillucbufP8UCHARBUFP10UErrorCode(ptr noundef nonnull %0, ptr noundef %2)
  %26 = load i32, ptr %2, align 4, !tbaa !14
  %27 = icmp slt i32 %26, 1
  br i1 %27, label %28, label %.loopexit

28:                                               ; preds = %24
  %29 = icmp ne i16 %14, 13
  %.pre = load ptr, ptr %9, align 8, !tbaa !19
  %.not69 = icmp ugt ptr %13, %.pre
  %or.cond108 = select i1 %29, i1 true, i1 %.not69
  br i1 %or.cond108, label %41, label %30

30:                                               ; preds = %28
  %31 = load i16, ptr %13, align 2, !tbaa !21
  %32 = icmp eq i16 %31, 10
  br i1 %32, label %33, label %41

33:                                               ; preds = %30
  %34 = getelementptr inbounds nuw i8, ptr %.0, i64 4
  %35 = load ptr, ptr %4, align 8, !tbaa !16
  %36 = ptrtoint ptr %13 to i64
  %37 = ptrtoint ptr %35 to i64
  %38 = sub i64 %36, %37
  %39 = lshr exact i64 %38, 1
  %40 = trunc i64 %39 to i32
  store i32 %40, ptr %1, align 4, !tbaa !8
  store ptr %34, ptr %4, align 8, !tbaa !16
  br label %.loopexit

41:                                               ; preds = %30, %28
  %.not70 = icmp ult ptr %13, %.pre
  br i1 %.not70, label %42, label %_ZL19ucbuf_isCharNewLineDs.exit.thread

42:                                               ; preds = %41
  switch i16 %14, label %_ZL19ucbuf_isCharNewLineDs.exit [
    i16 10, label %_ZL19ucbuf_isCharNewLineDs.exit.thread
    i16 13, label %_ZL19ucbuf_isCharNewLineDs.exit.thread
    i16 12, label %_ZL19ucbuf_isCharNewLineDs.exit.thread
    i16 133, label %_ZL19ucbuf_isCharNewLineDs.exit.thread
    i16 8232, label %_ZL19ucbuf_isCharNewLineDs.exit.thread
    i16 8233, label %_ZL19ucbuf_isCharNewLineDs.exit.thread
  ], !llvm.loop !33

_ZL19ucbuf_isCharNewLineDs.exit.thread:           ; preds = %42, %42, %42, %42, %42, %42, %41
  %43 = load ptr, ptr %4, align 8, !tbaa !16
  %44 = ptrtoint ptr %13 to i64
  %45 = ptrtoint ptr %43 to i64
  %46 = sub i64 %44, %45
  %47 = lshr exact i64 %46, 1
  %48 = trunc i64 %47 to i32
  store i32 %48, ptr %1, align 4, !tbaa !8
  store ptr %13, ptr %4, align 8, !tbaa !16
  br label %.loopexit

_ZL19ucbuf_isCharNewLineDs.exit73:                ; preds = %_ZL19ucbuf_isCharNewLineDs.exit73.preheader, %63
  %.1 = phi ptr [ %49, %63 ], [ %5, %_ZL19ucbuf_isCharNewLineDs.exit73.preheader ]
  %49 = getelementptr inbounds nuw i8, ptr %.1, i64 2
  %50 = load i16, ptr %.1, align 2, !tbaa !21
  %51 = icmp ne i16 %50, 13
  %.not64 = icmp ugt ptr %49, %11
  %or.cond = select i1 %51, i1 true, i1 %.not64
  br i1 %or.cond, label %62, label %52

52:                                               ; preds = %_ZL19ucbuf_isCharNewLineDs.exit73
  %53 = load i16, ptr %49, align 2, !tbaa !21
  %54 = icmp eq i16 %53, 10
  br i1 %54, label %55, label %62

55:                                               ; preds = %52
  %56 = getelementptr inbounds nuw i8, ptr %.1, i64 4
  %57 = ptrtoint ptr %49 to i64
  %58 = ptrtoint ptr %5 to i64
  %59 = sub i64 %57, %58
  %60 = lshr exact i64 %59, 1
  %61 = trunc i64 %60 to i32
  store i32 %61, ptr %1, align 4, !tbaa !8
  store ptr %56, ptr %4, align 8, !tbaa !16
  br label %.loopexit

62:                                               ; preds = %52, %_ZL19ucbuf_isCharNewLineDs.exit73
  %.not65 = icmp ult ptr %49, %11
  br i1 %.not65, label %63, label %_ZL19ucbuf_isCharNewLineDs.exit73.thread

63:                                               ; preds = %62
  switch i16 %50, label %_ZL19ucbuf_isCharNewLineDs.exit73 [
    i16 10, label %_ZL19ucbuf_isCharNewLineDs.exit73.thread
    i16 13, label %_ZL19ucbuf_isCharNewLineDs.exit73.thread
    i16 12, label %_ZL19ucbuf_isCharNewLineDs.exit73.thread
    i16 133, label %_ZL19ucbuf_isCharNewLineDs.exit73.thread
    i16 8232, label %_ZL19ucbuf_isCharNewLineDs.exit73.thread
    i16 8233, label %_ZL19ucbuf_isCharNewLineDs.exit73.thread
  ], !llvm.loop !35

_ZL19ucbuf_isCharNewLineDs.exit73.thread:         ; preds = %63, %63, %63, %63, %63, %63, %62
  %64 = ptrtoint ptr %49 to i64
  %65 = ptrtoint ptr %5 to i64
  %66 = sub i64 %64, %65
  %67 = lshr exact i64 %66, 1
  %68 = trunc i64 %67 to i32
  store i32 %68, ptr %1, align 4, !tbaa !8
  store ptr %49, ptr %4, align 8, !tbaa !16
  br label %.loopexit

.loopexit:                                        ; preds = %24, %_ZL19ucbuf_isCharNewLineDs.exit, %_ZL19ucbuf_isCharNewLineDs.exit73.preheader, %_ZL19ucbuf_isCharNewLineDs.exit73.thread, %55, %_ZL19ucbuf_isCharNewLineDs.exit.thread, %33, %23
  %.057 = phi ptr [ null, %23 ], [ %35, %33 ], [ %43, %_ZL19ucbuf_isCharNewLineDs.exit.thread ], [ %5, %55 ], [ %5, %_ZL19ucbuf_isCharNewLineDs.exit73.thread ], [ null, %_ZL19ucbuf_isCharNewLineDs.exit73.preheader ], [ null, %_ZL19ucbuf_isCharNewLineDs.exit ], [ null, %24 ]
  ret ptr %.057
}